target datalayout = "e-m:e-p270:32:32-p271:32:32-p272:64:64-i64:64-i128:128-f80:128-n8:16:32:64-S128"
target triple = "x86_64-pc-linux-gnu"

@ExecutorRun_hook = dso_local global ptr null, align 8

; Function Attrs: nounwind uwtable
define dso_local void @ExecutorRun(ptr noundef %0, i32 noundef %1, i64 noundef %2) #0 {
  %4 = alloca ptr, align 8
  %5 = alloca i32, align 4
  %6 = alloca i64, align 8
  store ptr %0, ptr %4, align 8
  store i32 %1, ptr %5, align 4
  store i64 %2, ptr %6, align 8
  %7 = load ptr, ptr @ExecutorRun_hook, align 8
  %8 = icmp ne ptr %7, null
  br i1 %8, label %9, label %14

9:                                                ; preds = %3
  %10 = load ptr, ptr @ExecutorRun_hook, align 8
  %11 = load ptr, ptr %4, align 8
  %12 = load i32, ptr %5, align 4
  %13 = load i64, ptr %6, align 8
  call void %10(ptr noundef %11, i32 noundef %12, i64 noundef %13)
  br label %18

14:                                               ; preds = %3
  %15 = load ptr, ptr %4, align 8
  %16 = load i32, ptr %5, align 4
  %17 = load i64, ptr %6, align 8
  call void @standard_ExecutorRun(ptr noundef %15, i32 noundef %16, i64 noundef %17)
  br label %18

18:                                               ; preds = %14, %9
  ret void
}