; Function Attrs: nounwind uwtable
define dso_local void @ExecutorRun(ptr noundef %0, i32 noundef %1, i64 noundef %2) local_unnamed_addr #0 {
  %4 = load ptr, ptr @ExecutorRun_hook, align 8
  %.not = icmp eq ptr %4, null
  br i1 %.not, label %6, label %5

5:                                                ; preds = %3
  tail call void %4(ptr noundef %0, i32 noundef %1, i64 noundef %2) #9
  br label %7

6:                                                ; preds = %3
  tail call void @standard_ExecutorRun(ptr noundef %0, i32 noundef %1, i64 noundef %2)
  br label %7

7:                                                ; preds = %6, %5
  ret void
}